(dp0
S'A'
p1
(dp2
S'ATTEMPT'
p3
I1
sS'ACE'
p4
I1
sS'ALLIGATOR'
p5
I1
sS'AIR'
p6
I1
sS'ANGLE'
p7
I1
sS'ASSHOLE'
p8
I1
sS'ALLEHANDRO'
p9
I1
sS'ALBEIT'
p10
I1
sS'APPLE'
p11
I14
sS'ALPHABET'
p12
I9
sS'AARDVARK'
p13
I1
sS'APPLESAUCE'
p14
I2
sS'ANSWER'
p15
I6
sS'ANYA'
p16
I1
sS'A'
p17
I1
sS'AM'
p18
I1
sS'ATHLETE'
p19
I1
sS'ANDROGYNOUS'
p20
I1
sS'AN'
p21
I1
sS'AGGREGATE'
p22
I1
sS'ABERCROMBIE'
p23
I1
sS'AND'
p24
I1
sS'ALPACCA'
p25
I1
sS'ATTRIBUTE'
p26
I1
sS'AWESOME'
p27
I1
sS'ANT'
p28
I1
sS'ATTACK'
p29
I1
sS'ANIMAL'
p30
I3
sS'APOSTROPHE'
p31
I1
sS'ANY'
p32
I1
sS'ALEXANDER'
p33
I1
ssS'C'
p34
(dp35
S'CLIT'
p36
I1
sS'COLUMBIA'
p37
I1
sS'CELLPHONE'
p38
I1
sS'CROW'
p39
I1
sS'CAP'
p40
I1
sS'CAT'
p41
I15
sS'CONTROLLER'
p42
I2
sS'COMPLEX'
p43
I2
sS'CAN'
p44
I1
sS'CALLUS'
p45
I1
sS'CURL'
p46
I1
sS'CARING'
p47
I1
sS'CECILIA'
p48
I1
sS'CANOE'
p49
I1
sS'CATAMORPHISM'
p50
I1
sS'COAL'
p51
I1
sS'COLIN'
p52
I2
sS'CAR'
p53
I3
sS'CAKE'
p54
I1
sS'CLOSE'
p55
I2
sS'CARLETON'
p56
I1
sS'CLOSURE'
p57
I1
sS'CORE'
p58
I1
sS'CUT'
p59
I1
sS'CUP'
p60
I3
sS'CLAY'
p61
I2
sS'CANDY'
p62
I1
sS'CHALK'
p63
I1
sS'COURSE'
p64
I1
sS'CRUEL'
p65
I1
sS'COMPUTER'
p66
I1
sS'CLOWN'
p67
I1
sS'CAPITAL'
p68
I1
sS'COMB'
p69
I1
sS'CRATE'
p70
I1
sS'CALL'
p71
I1
sS'CLOISTER'
p72
I1
ssS'B'
p73
(dp74
S'BOY'
p75
I4
sS'BASTARD'
p76
I1
sS'BEN'
p77
I1
sS'BELL'
p78
I2
sS'BACK'
p79
I4
sS'BAT'
p80
I1
sS'BEE'
p81
I3
sS'BAD'
p82
I1
sS'BIRTHDAY'
p83
I2
sS'BARBER'
p84
I1
sS'BONITIS'
p85
I1
sS'BOB'
p86
I1
sS'BOAT'
p87
I2
sS'BOG'
p88
I1
sS'BROWN'
p89
I2
sS'BEGIN'
p90
I2
sS'BASKETBALL'
p91
I2
sS'BIG'
p92
I1
sS'BARELY'
p93
I1
sS'BRAIN'
p94
I2
sS'BATMAN'
p95
I1
sS'BLACK'
p96
I2
sS'BLUE'
p97
I1
sS'BEAUTIFUL'
p98
I1
sS'BONY'
p99
I1
sS'BEAR'
p100
I2
sS'BACHELOR'
p101
I1
sS'BERRY'
p102
I1
sS'BABY'
p103
I2
sS'BOTANIST'
p104
I1
sS'BUILDING'
p105
I1
sS'BUCK'
p106
I1
sS'BECAUSE'
p107
I1
sS'BRING'
p108
I2
sS'BOOK'
p109
I5
sS'BRAG'
p110
I1
sS'BASEBALL'
p111
I1
ssS'E'
p112
(dp113
S'EVERYBODY'
p114
I1
sS'EGRET'
p115
I1
sS'EVERYONE'
p116
I1
sS'ENTERTAINMENT'
p117
I1
sS'ENTOMOLOGY'
p118
I1
sS'EFFICIENCY'
p119
I1
sS'EVERYWHERE'
p120
I1
sS'END'
p121
I1
sS'EFFORT'
p122
I1
sS'EXPERIMENT'
p123
I2
sS'EDWARD'
p124
I2
sS'ELEPHANT'
p125
I17
sS'EAR'
p126
I2
sS'EXTRACT'
p127
I1
sS'EAT'
p128
I7
sS'EXERCISE'
p129
I1
sS'ENEMY'
p130
I1
sS'EYE'
p131
I1
sS'ENERGY'
p132
I1
sS'EVIL'
p133
I1
sS'ELEMENT'
p134
I2
sS'EXPECT'
p135
I1
sS'ENTER'
p136
I2
sS'EXISTENTIAL'
p137
I1
sS'ERRONEOUS'
p138
I1
sS'EXPRESS'
p139
I1
sS'EXPERIENCE'
p140
I2
sS'ELEVEN'
p141
I1
sS'EDGE'
p142
I1
sS'EXIT'
p143
I1
sS'EGO'
p144
I2
ssS'D'
p145
(dp146
S"DON'T"
p147
I1
sS'DIG'
p148
I1
sS'DRIVE'
p149
I1
sS'DAVID'
p150
I1
sS'DOWN'
p151
I1
sS'DECREASE'
p152
I1
sS'DUCK'
p153
I1
sS'DIP'
p154
I1
sS'DINGUS'
p155
I1
sS'DORSAL'
p156
I1
sS'DAD'
p157
I3
sS'DOOM'
p158
I1
sS'DOCTOR'
p159
I1
sS'DANCE'
p160
I1
sS'DOODLE'
p161
I1
sS'DROP'
p162
I1
sS'DENVER'
p163
I1
sS'DAMN'
p164
I1
sS'DOCUMENT'
p165
I1
sS'DESTRUCTION'
p166
I1
sS'DUH'
p167
I1
sS'DRAIN'
p168
I2
sS'DOOR'
p169
I1
sS'DANGEROUS'
p170
I1
sS'DOG'
p171
I16
sS'DESK'
p172
I1
sS'DESTROY'
p173
I1
sS'DISCO'
p174
I1
sS'DIGEST'
p175
I1
sS'DICE'
p176
I1
sS'DANDELION'
p177
I2
sS'DOBERMAN'
p178
I1
sS'DICK'
p179
I5
sS'DUDE'
p180
I1
sS'DINOSAUR'
p181
I2
sS'DENTIST'
p182
I1
ssS'G'
p183
(dp184
S'GROSS'
p185
I1
sS'GREAT'
p186
I6
sS'GROUP'
p187
I1
sS'GEAR'
p188
I1
sS'GIARDIA'
p189
I1
sS'GALLOP'
p190
I1
sS'GROWL'
p191
I1
sS'GOOD'
p192
I5
sS'GORILLA'
p193
I1
sS'GAME'
p194
I1
sS'GOOGLE'
p195
I1
sS'GREEN'
p196
I2
sS'GROUPS'
p197
I1
sS'GRAPH'
p198
I2
sS'GENDER'
p199
I1
sS'GENERAL'
p200
I2
sS'GIRAFFE'
p201
I3
sS'GERRYMANDER'
p202
I1
sS'GRAB'
p203
I1
sS'GHOST'
p204
I1
sS'GOLDILOCKS'
p205
I1
sS'GRAPE'
p206
I1
sS'GLACIER'
p207
I1
sS'GOD'
p208
I5
sS'GRANDMA'
p209
I1
sS'GALE'
p210
I1
sS'GANG'
p211
I1
sS'GO'
p212
I6
sS'GOSSIP'
p213
I3
sS'GEORGE'
p214
I2
sS'GROUND'
p215
I1
sS'GRADE'
p216
I2
sS'GALLAGHER'
p217
I1
ssS'F'
p218
(dp219
S'FUNCTION'
p220
I1
sS'FOREVER'
p221
I1
sS'FINGERBOARD'
p222
I2
sS'FREEDOM'
p223
I1
sS'FRIDAY'
p224
I1
sS'FUCK'
p225
I9
sS'FRENCH'
p226
I2
sS'FIGHT'
p227
I1
sS'FOUR'
p228
I2
sS'FILE'
p229
I1
sS'FRENETIC'
p230
I1
sS'FIND'
p231
I2
sS'FLASHLIGHT'
p232
I1
sS'FIREHOUSE'
p233
I1
sS'FLOWER'
p234
I2
sS'FAMILY'
p235
I1
sS'FLOP'
p236
I1
sS'FLIP'
p237
I2
sS'FAT'
p238
I3
sS'FLUENCY'
p239
I2
sS'FRIEND'
p240
I4
sS'FOOL'
p241
I1
sS'FRICK'
p242
I1
sS'FELONY'
p243
I1
sS'FREEZING'
p244
I1
sS'FREE'
p245
I1
sS'FRISBEE'
p246
I2
sS'FIVE'
p247
I2
sS'FEMALE'
p248
I1
sS'FAIL'
p249
I1
sS'FLAMINGO'
p250
I1
sS'FORT'
p251
I1
sS'FRANK'
p252
I1
sS'FORFEIT'
p253
I1
sS'FROG'
p254
I2
sS'FACE'
p255
I1
sS'FAILURE'
p256
I1
ssS'I'
p257
(dp258
S'INDEX'
p259
I1
sS'INHIBIT'
p260
I3
sS'INDIGO'
p261
I1
sS'INTERESTING'
p262
I1
sS'INTEGRAL'
p263
I1
sS'ICONIC'
p264
I1
sS'INCARCERATE'
p265
I1
sS'IOTA'
p266
I1
sS'IMITATE'
p267
I2
sS'IPHONE'
p268
I2
sS'INTEREST'
p269
I1
sS'IMAGINE'
p270
I2
sS'INTEGER'
p271
I1
sS'IGLOO'
p272
I6
sS'INTEGRATED'
p273
I1
sS'ICARUS'
p274
I2
sS'IAN'
p275
I1
sS'IMPUDENT'
p276
I1
sS'I'
p277
I8
sS'INTO'
p278
I1
sS'ICE'
p279
I7
sS'INDIVIDUAL'
p280
I3
sS'ICKY'
p281
I1
sS'IN'
p282
I2
sS'ICE CREAM'
p283
I1
sS'IGUANA'
p284
I1
sS'ITO'
p285
I1
sS'INSIDE'
p286
I1
sS'ILLUSION'
p287
I2
sS'INDIAN'
p288
I1
sS"I'M"
p289
I1
sS'INTERPRET'
p290
I1
ssS'H'
p291
(dp292
S'HINDER'
p293
I1
sS'HORSE'
p294
I4
sS'HELP'
p295
I2
sS'HARD'
p296
I1
sS'HAIR'
p297
I1
sS'HI'
p298
I1
sS'HURDLE'
p299
I1
sS'HAVE'
p300
I1
sS'HELL'
p301
I1
sS'HOME'
p302
I4
sS'HOLIDAY'
p303
I1
sS'HATE'
p304
I1
sS'HAPPY'
p305
I3
sS'HUG'
p306
I1
sS'HIDE'
p307
I1
sS'HEROS'
p308
I1
sS'HINT'
p309
I1
sS'HOSPITAL'
p310
I1
sS'HELICOPTOR'
p311
I2
sS'HELLEN'
p312
I1
sS'HORATIO'
p313
I1
sS'HAND'
p314
I2
sS'HYENA'
p315
I1
sS'HEAT'
p316
I1
sS'HIT'
p317
I3
sS'HOLD'
p318
I1
sS'HAT'
p319
I7
sS'HELLO'
p320
I2
sS'HIGH'
p321
I3
sS'HOUSE'
p322
I6
sS'HONK'
p323
I1
sS'HONEY'
p324
I1
sS'HEALTH'
p325
I1
ssS'J'
p326
(dp327
S'JAR'
p328
I4
sS'JUNE'
p329
I1
sS'JERRY'
p330
I1
sS'JERK'
p331
I1
sS'JUXTAPOSITION'
p332
I1
sS'JUICE'
p333
I4
sS'JOB'
p334
I3
sS'JUPITER'
p335
I1
sS'JOG'
p336
I3
sS'JINGLE'
p337
I1
sS'JOHN'
p338
I1
sS'JENNA'
p339
I2
sS'JEW'
p340
I1
sS'JUST'
p341
I3
sS'JAY'
p342
I1
sS'JUSTICE'
p343
I1
sS'JANUARY'
p344
I4
sS'JEWEL'
p345
I2
sS'JELLY'
p346
I1
sS'JESTER'
p347
I1
sS'JOKER'
p348
I2
sS'JOKES'
p349
I1
sS'JOVIAL'
p350
I1
sS'JORDAN'
p351
I2
sS'JACK'
p352
I4
sS'JOIN'
p353
I1
sS'JELLO'
p354
I1
sS'JUMP'
p355
I4
sS'JAGUAR'
p356
I1
sS'JUNIPER'
p357
I1
sS'JOKE'
p358
I1
sS'JOURNAL'
p359
I1
sS'JSTORE'
p360
I1
sS'JOEL'
p361
I2
ssS'M'
p362
(dp363
S'MONDAY'
p364
I1
sS'MIRE'
p365
I1
sS'MOVE'
p366
I2
sS'MARCO'
p367
I2
sS'MARCH'
p368
I1
sS'MONKEY'
p369
I2
sS'MILENA'
p370
I1
sS'MANY'
p371
I2
sS'METER'
p372
I1
sS'MASTER'
p373
I1
sS'MOTHER'
p374
I2
sS'MONSTROSITY'
p375
I1
sS'MAMMAL'
p376
I1
sS'MALE'
p377
I4
sS'MOUSE'
p378
I3
sS'MISSISSIPPI'
p379
I1
sS'MEASURE'
p380
I1
sS'MAXIMUM'
p381
I1
sS'MADE'
p382
I1
sS'MAIL'
p383
I1
sS'MOUSEPAD'
p384
I1
sS'MATCH'
p385
I1
sS'MAT'
p386
I1
sS'ME'
p387
I3
sS'MATT'
p388
I2
sS'MONSTER'
p389
I1
sS'MEMORY'
p390
I1
sS'MOON'
p391
I1
sS'MOM'
p392
I8
sS'MARY'
p393
I2
sS'MAZE'
p394
I1
sS'MORE'
p395
I2
sS'MY'
p396
I1
sS'METABOLISM'
p397
I1
sS'MAN'
p398
I4
ssS'L'
p399
(dp400
S'LIE'
p401
I2
sS'LIFE'
p402
I1
sS'LEMON'
p403
I3
sS'LAKE'
p404
I2
sS'LONELY'
p405
I2
sS'LOW'
p406
I1
sS'LEVER'
p407
I1
sS'LINE'
p408
I1
sS'LILAC'
p409
I1
sS'LONG'
p410
I3
sS'LAUGHING'
p411
I2
sS'LIPOSUCTION'
p412
I1
sS'LAMB'
p413
I2
sS'LICK'
p414
I1
sS'LOVE'
p415
I6
sS'LOSER'
p416
I2
sS'LEVI'
p417
I1
sS'LION'
p418
I4
sS'LETTER'
p419
I1
sS'LAUREL'
p420
I1
sS'LEXICOGRAPHICALLY'
p421
I1
sS'LOOK'
p422
I1
sS'LOON'
p423
I1
sS'LOSS'
p424
I1
sS'LEXICON'
p425
I1
sS'LIKE'
p426
I1
sS'LOST'
p427
I1
sS'LADLE'
p428
I1
sS'LEAK'
p429
I1
sS'LUCY'
p430
I1
sS'LEO'
p431
I1
sS'LUCA'
p432
I1
sS'LAUGH'
p433
I4
sS'LOSE'
p434
I4
sS'LEFT'
p435
I1
sS'LAP'
p436
I1
ssS'O'
p437
(dp438
S'ORTHOGONAL'
p439
I2
sS'OVER'
p440
I1
sS'OWEN'
p441
I2
sS'OPPORTUNITIES'
p442
I1
sS'OSTRICH'
p443
I2
sS'OHOY'
p444
I1
sS'OWL'
p445
I1
sS'OUTSIDE'
p446
I1
sS'OAT'
p447
I1
sS'ORANGUTAN'
p448
I2
sS'OCTOPUS'
p449
I6
sS'OMNIVORE'
p450
I1
sS'OPEN'
p451
I12
sS'OMIT'
p452
I1
sS'ORANGE'
p453
I5
sS'ORIGAMI'
p454
I1
sS'OCTOGON'
p455
I2
sS'ORIGINAL'
p456
I1
sS'OUT'
p457
I1
sS'ORIGIN'
p458
I1
sS'OCTOBER'
p459
I1
sS'OXEN'
p460
I1
sS'OPPOSITE'
p461
I1
sS'OBVIOUS'
p462
I1
sS'OFFENSE'
p463
I1
sS'OPTIMAL'
p464
I1
sS'ON'
p465
I1
sS'OH'
p466
I4
sS'OUTWARD'
p467
I1
sS'OPUS'
p468
I1
sS'OBLONG'
p469
I1
sS'OR'
p470
I1
ssS'N'
p471
(dp472
S'NUANCE'
p473
I2
sS'NORDSTROM'
p474
I1
sS'NOBODY'
p475
I1
sS'NUMBER'
p476
I2
sS'NAMELESS'
p477
I1
sS'NITROGEN'
p478
I1
sS'NEW'
p479
I8
sS'NEITHER'
p480
I1
sS'NARWHAL'
p481
I1
sS'NIAGRA FALLS'
p482
I2
sS'NOISE'
p483
I1
sS'NO'
p484
I12
sS'NEVER'
p485
I3
sS'NEXT'
p486
I3
sS'NOSE'
p487
I1
sS'NIGHTTIME'
p488
I1
sS'NATION'
p489
I1
sS'NIGHT'
p490
I1
sS'NEVERMORE'
p491
I1
sS'NARUN'
p492
I2
sS'NATHANIEL'
p493
I1
sS'NECK'
p494
I1
sS'NAME'
p495
I1
sS'NEAR'
p496
I1
sS'NOTHING'
p497
I3
sS'NIP'
p498
I2
sS'NOPE'
p499
I2
sS'NAPLES'
p500
I1
sS'NICE'
p501
I2
ssS'P'
p502
(dp503
S'PAIRS'
p504
I1
sS'PONY'
p505
I1
sS'PALLINDROME'
p506
I1
sS'PEOPLE'
p507
I1
sS'PET'
p508
I1
sS'PERSEPHONE'
p509
I1
sS'PEAR'
p510
I1
sS'PUKE'
p511
I2
sS'PINEAPPLE'
p512
I1
sS'POPCORN'
p513
I1
sS'PEE'
p514
I2
sS'PIZZA'
p515
I2
sS'POWER'
p516
I1
sS'PURPLE'
p517
I2
sS'PROMISCUOUS'
p518
I1
sS'PHONE'
p519
I4
sS'PAIN'
p520
I1
sS'PHONETIC'
p521
I1
sS'PRY'
p522
I1
sS'PENGUIN'
p523
I1
sS'POOR'
p524
I1
sS'PLAY'
p525
I1
sS'PEDRO'
p526
I1
sS'PINKOWSKI'
p527
I1
sS'PLAYER'
p528
I1
sS'PLACE'
p529
I1
sS'POLYNOMIAL'
p530
I2
sS'PAUL'
p531
I2
sS'PUPPY'
p532
I2
sS'PENTAGON'
p533
I1
sS'PRINCE'
p534
I1
sS'POOL'
p535
I3
sS'PSEUDONYM'
p536
I2
sS'PROJECT'
p537
I1
sS'PRICK'
p538
I2
sS'POTATO'
p539
I1
sS'PIT'
p540
I1
sS'PLATO'
p541
I2
sS'PLEASE'
p542
I1
sS'PERSISTENT'
p543
I1
sS'PECTORALS'
p544
I1
sS'PENIS'
p545
I2
sS'PANDA'
p546
I1
sS'PREACH'
p547
I1
ssS'S'
p548
(dp549
S'SOUND'
p550
I1
sS'SWIM'
p551
I1
sS'SHORT'
p552
I1
sS'SALAD'
p553
I1
sS'SIT'
p554
I1
sS'SUN'
p555
I1
sS'STOP'
p556
I2
sS'STAY'
p557
I1
sS'SURE'
p558
I1
sS'SCISSORS'
p559
I1
sS'SMALL'
p560
I1
sS'SORRY'
p561
I1
sS'STRONG'
p562
I1
sS'SARCOPHAGUS'
p563
I1
sS'SNAIL'
p564
I1
sS'SAD'
p565
I2
sS'SHOWER'
p566
I1
sS'SEE'
p567
I1
sS'SNAKE'
p568
I5
sS'SICK'
p569
I2
sS'STUART'
p570
I1
sS'SCANDAL'
p571
I1
sS'SPLAT'
p572
I1
sS'SPECIAL'
p573
I1
sS'SOMETHING'
p574
I1
sS'SAUCY'
p575
I1
sS'SILVA'
p576
I1
sS'SOMEBODY'
p577
I1
sS'SHIRT'
p578
I1
sS'SCIENCE'
p579
I1
sS'SLAM'
p580
I1
sS'SOLVE'
p581
I1
sS'SEXY'
p582
I1
sS'SAUCE'
p583
I1
sS'SILVER'
p584
I1
sS'SEX'
p585
I1
sS'SEVEN'
p586
I1
sS'SAM'
p587
I1
sS'SALIVA'
p588
I1
sS'SAME'
p589
I1
sS'SO'
p590
I1
sS'SEMANTICS'
p591
I1
sS'SET'
p592
I1
sS'SADISTIC'
p593
I1
sS'SHIRLEY'
p594
I1
sS'SOPHIE'
p595
I2
sS'SPEAK'
p596
I1
sS'SUPER'
p597
I2
sS'SIDE'
p598
I1
sS'SENT'
p599
I1
sS'SUBJECT'
p600
I1
ssS'R'
p601
(dp602
S'RANGOON'
p603
I1
sS'RETURN'
p604
I1
sS'READ'
p605
I2
sS'RESTRICT'
p606
I2
sS'RABBIT'
p607
I5
sS'RED'
p608
I3
sS'RARE'
p609
I1
sS'ROOM'
p610
I1
sS'RECTIFY'
p611
I1
sS'ROAR'
p612
I2
sS'RASCAL'
p613
I1
sS'RIP'
p614
I1
sS'RHINOCEROS'
p615
I2
sS'RAT'
p616
I2
sS'ROCK'
p617
I1
sS'RAWR'
p618
I1
sS'RAINBOW'
p619
I1
sS'ROADRUNNER'
p620
I1
sS'RAMPAGE'
p621
I1
sS'RAIN'
p622
I1
sS'RODENT'
p623
I1
sS'RIGHT'
p624
I8
sS'REICH'
p625
I1
sS'RIPPLE'
p626
I1
sS'RECTUM'
p627
I1
sS'REDO'
p628
I1
sS'REGRESSION'
p629
I2
sS'ROTATE'
p630
I2
sS'RUN'
p631
I2
sS'REMOVE'
p632
I1
sS'RHODE ISLAND'
p633
I2
sS'R'
p634
I2
sS'RICK'
p635
I1
sS'RICH'
p636
I1
sS'ROUGE'
p637
I1
sS'RABI'
p638
I1
sS'RICE'
p639
I1
ssS'U'
p640
(dp641
S'UNAMBIGUOUS'
p642
I1
sS'USE'
p643
I1
sS'UNIFY'
p644
I1
sS'URANUS'
p645
I3
sS'URINE'
p646
I1
sS'UNDER'
p647
I10
sS'UNDERWEAR'
p648
I2
sS'URGENT'
p649
I1
sS'UDACITY'
p650
I1
sS'UNDERSTAND'
p651
I1
sS'USELESS'
p652
I1
sS'UGANDA'
p653
I1
sS'UBIQUITOUS'
p654
I1
sS'UNZIP'
p655
I1
sS'ULYSSES'
p656
I2
sS'UNDULATE'
p657
I1
sS'UTOPIA'
p658
I2
sS'UNDERLINE'
p659
I2
sS'URETHRA'
p660
I1
sS'UNDERCUT'
p661
I1
sS'UMBRELLA'
p662
I5
sS'UNITE'
p663
I1
sS'UNDERNEATH'
p664
I1
sS'UNDERDOG'
p665
I1
sS'UNIBROW'
p666
I1
sS'UNIQUE'
p667
I1
sS'UNITARIAN'
p668
I1
sS'UPPER'
p669
I1
sS'UNITED'
p670
I1
sS'UNISEX'
p671
I1
sS'UP'
p672
I3
sS'UPSIDE-DOWN'
p673
I1
sS'ULTIMATE'
p674
I2
sS'USURP'
p675
I2
sS'UNICORN'
p676
I2
sS'UNICYCLE'
p677
I1
ssS'T'
p678
(dp679
S'TURTLE'
p680
I1
sS'TOY'
p681
I2
sS'TOP'
p682
I2
sS'TIP'
p683
I1
sS'TRICK'
p684
I1
sS'TRUCK'
p685
I1
sS'TOO'
p686
I1
sS'TIE'
p687
I1
sS'TEXAS'
p688
I1
sS'TINT'
p689
I1
sS'TORTOISE'
p690
I1
sS'TOTE'
p691
I1
sS'TUCK'
p692
I1
sS'TEA'
p693
I4
sS'TERRIBLE'
p694
I1
sS'TIGER'
p695
I1
sS'TO'
p696
I1
sS'TELEPATHY'
p697
I1
sS'TOUCH'
p698
I1
sS'TONGUE'
p699
I1
sS'TAO'
p700
I1
sS'TOTALLY'
p701
I2
sS'TRAPEZE'
p702
I1
sS'TALK'
p703
I1
sS'THOMAS'
p704
I1
sS'THORN'
p705
I1
sS'TEAM'
p706
I1
sS'TRY'
p707
I1
sS'TYRANNOSAURUS'
p708
I2
sS'TASK'
p709
I1
sS'TYRANT'
p710
I1
sS'TONY'
p711
I1
sS'TETRIS'
p712
I2
sS'TOTAL'
p713
I1
sS'THING'
p714
I1
sS'TRACK'
p715
I1
sS'TRANSFER'
p716
I1
sS'TWIDDLY'
p717
I1
sS'TISK'
p718
I1
sS'TREE'
p719
I4
sS'TELL'
p720
I1
sS'TRAIN'
p721
I3
sS'TAKE'
p722
I1
sS'TIME'
p723
I3
sS'TEACHER'
p724
I1
ssS'W'
p725
(dp726
S'WE'
p727
I1
sS'WHETHER'
p728
I1
sS'WET'
p729
I1
sS'WALK'
p730
I1
sS'WONDER'
p731
I1
sS'WILL'
p732
I2
sS'WHAT'
p733
I2
sS'WOMAN'
p734
I2
sS'WORD'
p735
I1
sS'WATER BOTTLE'
p736
I1
sS'WORK'
p737
I1
sS'WHEN'
p738
I1
sS'WEATHER'
p739
I1
sS'WENT'
p740
I1
sS'WONDERWALL'
p741
I1
sS'WALRUS'
p742
I1
sS'WHOA'
p743
I1
sS'WAYLAID'
p744
I1
sS'WAIL'
p745
I2
sS'WYOMING'
p746
I1
sS'WEDNESDAY'
p747
I1
sS'WARM'
p748
I1
sS'WENDY'
p749
I1
sS'WAX'
p750
I4
sS'WHITE'
p751
I2
sS'WAIT'
p752
I1
sS'WINTER'
p753
I2
sS'WACKED'
p754
I1
sS'WIN'
p755
I4
sS'WATER'
p756
I4
sS'WINDOW'
p757
I5
sS'WIT'
p758
I1
sS'WUG'
p759
I1
sS'WAYPOINT'
p760
I1
sS'WHALE'
p761
I5
sS'WIND'
p762
I1
sS'WINE'
p763
I1
ssS'V'
p764
(dp765
S'VERONICA'
p766
I2
sS'VERMONT'
p767
I3
sS'VARICOSE'
p768
I1
sS'VAPE'
p769
I1
sS'VIOLET'
p770
I2
sS'VERTEX'
p771
I1
sS'VIBRATE'
p772
I1
sS'VOLUME'
p773
I1
sS'VULCAN'
p774
I1
sS'VIRTUE'
p775
I1
sS'VOLCANO'
p776
I1
sS'VIOLIN'
p777
I3
sS'VOICE'
p778
I1
sS'VALOR'
p779
I1
sS'VILLIFY'
p780
I1
sS'VIKINGS'
p781
I1
sS'VANESSA'
p782
I2
sS'VERIFY'
p783
I1
sS'VARIABLES'
p784
I1
sS'VIBRAPHONE'
p785
I1
sS'VAGINA'
p786
I3
sS'VIRGIL'
p787
I1
sS'VOUCHER'
p788
I1
sS'V-NECK'
p789
I1
sS'VET'
p790
I2
sS'VALERIE'
p791
I1
sS'VOLUPTUOUS'
p792
I1
sS'VERY'
p793
I3
sS'VEX'
p794
I3
sS'VERTICAL'
p795
I2
sS'VITRIFYING'
p796
I1
sS'VEHICLE'
p797
I2
sS'VAULT'
p798
I1
sS'VENUS'
p799
I2
sS'VISCOUS'
p800
I1
sS'VEIN'
p801
I1
sS'VELOCIRAPTOR'
p802
I1
sS'VOLT'
p803
I1
sS'VITAMIN'
p804
I1
sS'VERNACULAR'
p805
I1
sS'VECTOR'
p806
I2
sS'VICTORY'
p807
I1
ssS'W\r\n'
p808
(dp809
s.