(lp0
F0.00625
aF0.05197505197505198
aF0.06280193236714976
aF0.14225941422594143
aF0.17966101694915254
aF0.2781569965870307
aF0.31204379562043794
aF0.3875
aF0.401468788249694
aF0.4320685434516524
aF0.4430844553243574
aF0.458029197080292
aF0.501039501039501
aF0.5042839657282742
aF0.5093555093555093
aF0.5175355450236967
aF0.5212569316081331
aF0.5371428571428571
aF0.5384615384615384
aF0.5409556313993175
aF0.5423594615993665
aF0.5489833641404805
aF0.5507246376811594
aF0.5567484662576687
aF0.5571428571428572
aF0.5572139303482587
aF0.5625
aF0.5638686131386861
aF0.5660919540229885
aF0.5778097982708934
aF0.5830508474576271
aF0.5853242320819113
aF0.5857740585774058
aF0.6019184652278178
aF0.6101694915254238
aF0.6138328530259366
aF0.6257142857142857
aF0.6319018404907976
aF0.6457055214723927
aF0.6485714285714286
aF0.65625
aF0.659942363112392
aF0.6631016042780749
aF0.6642335766423357
aF0.6657754010695187
aF0.6673596673596673
aF0.6752873563218391
aF0.6810551558752997
aF0.6849087893864013
aF0.7002398081534772
aF0.703125
aF0.7097701149425287
aF0.7125
aF0.7186440677966102
aF0.7190201729106628
aF0.7194244604316546
aF0.7204610951008645
aF0.7265625
aF0.726962457337884
aF0.7280334728033473
aF0.7298850574712644
aF0.7319884726224783
aF0.7371428571428571
aF0.7514285714285714
aF0.7573221757322176
aF0.76
aF0.760914760914761
aF0.7762711864406779
aF0.7769784172661871
aF0.7844827586206896
aF0.7937956204379562
aF0.7943696450428397
aF0.7971014492753623
aF0.8038461538461539
aF0.8074866310160428
aF0.8077634011090573
aF0.8177458033573142
aF0.8198847262247838
aF0.8203125
aF0.8298653610771114
aF0.8309178743961353
aF0.83125
aF0.8371757925072046
aF0.8441247002398081
aF0.8477011494252874
aF0.8515625
aF0.8521256931608133
aF0.8535233570863024
aF0.8600682593856656
aF0.8735632183908046
aF0.8760806916426513
aF0.8764367816091954
aF0.8796791443850267
aF0.8818443804034583
aF0.8846153846153846
aF0.8847262247838616
aF0.8855721393034826
aF0.8861671469740634
aF0.8876080691642652
aF0.8914285714285715
aF0.8947867298578199
aF0.895397489539749
aF0.9045287637698899
aF0.9050847457627119
aF0.9082125603864735
aF0.9087591240875912
aF0.9094269870609981
aF0.9205020920502092
aF0.921875
aF0.9270315091210614
aF0.9322033898305084
aF0.9330543933054394
aF0.9365994236311239
aF0.9371980676328503
aF0.9390018484288355
aF0.9400479616306955
aF0.9408502772643254
aF0.9482758620689655
aF0.95
aF0.9500924214417745
aF0.9514285714285714
aF0.9525423728813559
aF0.9568345323741008
aF0.96
aF0.962536023054755
aF0.9627118644067797
aF0.9667458432304038
aF0.9677914110429447
aF0.9758454106280193
aF0.9815157116451017
aF0.9833641404805915
aF0.984375
aF0.9877300613496932
aF0.9884615384615385
aF0.9884726224783862
aF0.9898305084745763
aF0.9903381642512077
aF0.9938650306748467
aF0.9963503649635036
aF0.9971563981042654
aF1.0
aF1.0
aF1.0
a.