(lp0
F0.0009478672985781991
aF0.0015337423312883436
aF0.001658374792703151
aF0.0017064846416382253
aF0.0018248175182481751
aF0.002398081534772182
aF0.00267379679144385
aF0.002857142857142857
aF0.0028735632183908046
aF0.002881844380403458
aF0.003389830508474576
aF0.0034129692832764505
aF0.0036496350364963502
aF0.0036968576709796672
aF0.0041841004184100415
aF0.004322766570605188
aF0.004750593824228029
aF0.004830917874396135
aF0.006237006237006237
aF0.0078125
aF0.008571428571428572
aF0.008620689655172414
aF0.008645533141210375
aF0.009242144177449169
aF0.009592326139088728
aF0.009950248756218905
aF0.010169491525423728
aF0.011527377521613832
aF0.011538461538461539
aF0.012322274881516588
aF0.013266998341625208
aF0.014285714285714285
aF0.016632016632016633
aF0.0166358595194085
aF0.016736401673640166
aF0.019184652278177457
aF0.020072992700729927
aF0.02092050209205021
aF0.02158273381294964
aF0.022181146025878003
aF0.023728813559322035
aF0.023980815347721823
aF0.025714285714285714
aF0.025936599423631124
aF0.02711864406779661
aF0.03117505995203837
aF0.03170028818443804
aF0.033271719038817
aF0.03427172582619339
aF0.03461538461538462
aF0.037142857142857144
aF0.037463976945244955
aF0.037914691943127965
aF0.037943696450428395
aF0.0390625
aF0.040345821325648415
aF0.040955631399317405
aF0.04158004158004158
aF0.04251386321626617
aF0.04610951008645533
aF0.046875
aF0.047961630695443645
aF0.049079754601226995
aF0.04927007299270073
aF0.05187319884726225
aF0.05275779376498801
aF0.05314009661835749
aF0.053475935828877004
aF0.054285714285714284
aF0.05439330543933055
aF0.05474452554744526
aF0.05747126436781609
aF0.0625
aF0.06609195402298851
aF0.066543438077634
aF0.07046714172604909
aF0.07208872458410351
aF0.0748663101604278
aF0.07578558225508318
aF0.0794979079497908
aF0.08045977011494253
aF0.08333333333333333
aF0.08502772643253234
aF0.08571428571428572
aF0.09221902017291066
aF0.09726962457337884
aF0.1
aF0.1016949152542373
aF0.11671469740634005
aF0.1171875
aF0.12680115273775217
aF0.13218390804597702
aF0.13220338983050847
aF0.13650306748466257
aF0.14375
aF0.14760914760914762
aF0.15254237288135594
aF0.15714285714285714
aF0.1640625
aF0.1657754010695187
aF0.16714697406340057
aF0.1796875
aF0.18357487922705315
aF0.18705035971223022
aF0.18840579710144928
aF0.19631901840490798
aF0.19806763285024154
aF0.21613832853025935
aF0.2222222222222222
aF0.2327790973871734
aF0.234375
aF0.23631123919308358
aF0.2471264367816092
aF0.25084745762711863
aF0.25287356321839083
aF0.25363825363825365
aF0.2576271186440678
aF0.26
aF0.2608695652173913
aF0.2890625
aF0.2962056303549572
aF0.2995169082125604
aF0.3028571428571429
aF0.3515850144092219
aF0.36538461538461536
aF0.41841004184100417
aF0.4187116564417178
aF0.4447852760736196
aF0.4453125
aF0.45410628019323673
aF0.4969400244798042
aF0.5437956204379562
aF0.5581395348837209
aF0.5703794369645043
aF0.6009791921664627
aF0.625
aF0.6806569343065694
aF0.7320819112627986
aF0.8271186440677966
aF0.8451882845188284
aF0.9420289855072463
aF0.9542619542619543
aF0.99375
a.