(lp0
(lp1
(lp2
S'APPLE'
p3
aF0.006633499170812604
aF0.013266998341625208
aF0.6849087893864013
aa(lp4
S'ALPHABET'
p5
aF0.12603648424543948
aF0.2222222222222222
aF0.8855721393034826
aa(lp6
S'ANSWER'
p7
aF0.011608623548922056
aF0.009950248756218905
aF0.9270315091210614
aa(lp8
S'ANIMAL'
p9
aF0.001658374792703151
aF0.001658374792703151
aF0.5572139303482587
aa(lp10
S'APPLESAUCE'
p11
aS'N/A'
p12
ag12
ag12
aaa(lp13
(lp14
S'BOOK'
p15
aF0.007204610951008645
aF0.002881844380403458
aF0.7190201729106628
aa(lp16
S'BEE'
p17
aF0.10806916426512968
aF0.12680115273775217
aF0.962536023054755
aa(lp18
S'BACK'
p19
aF0.0345821325648415
aF0.03170028818443804
aF0.8371757925072046
aa(lp20
S'BOY'
p21
aF0.005763688760806916
aF0.025936599423631124
aF0.8847262247838616
aa(lp22
S'BABY'
p23
aF0.01440922190201729
aF0.011527377521613832
aF0.6138328530259366
aa(lp24
S'BLACK'
p25
aF0.004322766570605188
aF0.004322766570605188
aF0.8861671469740634
aa(lp26
S'BRAIN'
p27
aF0.043227665706051875
aF0.040345821325648415
aF0.659942363112392
aa(lp28
S'BASKETBALL'
p29
aF0.06051873198847262
aF0.05187319884726225
aF0.8198847262247838
aa(lp30
S'BROWN'
p31
aF0.05475504322766571
aF0.04610951008645533
aF0.5778097982708934
aa(lp32
S'BELL'
p33
aF0.06340057636887608
aF0.11671469740634005
aF0.8760806916426513
aaa(lp34
(lp35
S'CAT'
p36
aF0.0037914691943127963
aF0.012322274881516588
aF0.9971563981042654
aa(lp37
S'CUP'
p38
aF0.027488151658767772
aF0.037914691943127965
aF0.8947867298578199
aa(lp39
S'CAR'
p40
aF0.0009478672985781991
aF0.0009478672985781991
aF0.5175355450236967
aaa(lp41
(lp42
S'DOG'
p43
aF0.0015337423312883436
aF0.0015337423312883436
aF0.9877300613496932
aa(lp44
S'DICK'
p45
aF0.26993865030674846
aF0.4447852760736196
aF0.5567484662576687
aa(lp46
S'DINOSAUR'
p47
aF0.3343558282208589
aF0.19631901840490798
aF0.6319018404907976
aa(lp48
S'DANDELION'
p49
aF0.4938650306748466
aF0.4187116564417178
aF0.9677914110429447
aa(lp50
S'DRAIN'
p51
aF0.1579754601226994
aF0.13650306748466257
aF0.6457055214723927
aa(lp52
S'DAD'
p53
aF0.04141104294478527
aF0.049079754601226995
aF0.9938650306748467
aaa(lp54
(lp55
S'ELEPHANT'
p56
aF0.040106951871657755
aF0.0748663101604278
aF0.6631016042780749
aa(lp57
S'EAT'
p58
aF0.00267379679144385
aF0.00267379679144385
aF0.8796791443850267
aa(lp59
S'EXPERIENCE'
p60
aF0.33689839572192515
aF0.1657754010695187
aF0.6657754010695187
aa(lp61
S'EAR'
p62
aF0.03208556149732621
aF0.053475935828877004
aF0.8074866310160428
aaa(lp63
(lp64
S'FUCK'
p65
aF0.8316008316008316
aF0.9542619542619543
aF0.05197505197505198
aa(lp66
S'FRIEND'
p67
aF0.004158004158004158
aF0.006237006237006237
aF0.501039501039501
aa(lp68
S'FROG'
p69
aF0.12058212058212059
aF0.14760914760914762
aF0.5384615384615384
aa(lp70
S'FIVE'
p71
aF0.18503118503118504
aF0.25363825363825365
aF0.760914760914761
aa(lp72
S'FLUENCY'
p73
ag12
ag12
ag12
aa(lp74
S'FAT'
p75
aF0.008316008316008316
aF0.016632016632016633
aF0.6673596673596673
aa(lp76
S'FLOWER'
p77
aF0.02079002079002079
aF0.04158004158004158
aF0.5093555093555093
aaa(lp78
(lp79
S'GOD'
p80
aF0.025714285714285714
aF0.014285714285714285
aF0.5371428571428571
aa(lp81
S'GREAT'
p82
aF0.017142857142857144
aF0.037142857142857144
aF0.6257142857142857
aa(lp83
S'GO'
p84
aF0.014285714285714285
aF0.025714285714285714
aF0.76
aa(lp85
S'GOOD'
p86
aF0.002857142857142857
aF0.002857142857142857
aF0.9514285714285714
aa(lp87
S'GIRAFFE'
p88
aF0.3742857142857143
aF0.3028571428571429
aF0.96
aa(lp89
S'GRADE'
p90
aF0.05142857142857143
aF0.054285714285714284
aF0.7371428571428571
aa(lp91
S'GOSSIP'
p92
aF0.2257142857142857
aF0.15714285714285714
aF0.7514285714285714
aa(lp93
S'GENERAL'
p94
aF0.14285714285714285
aF0.08571428571428572
aF0.5571428571428572
aa(lp95
S'GRAPH'
p96
aF0.4114285714285714
aF0.26
aF0.8914285714285715
aa(lp97
S'GREEN'
p98
aF0.008571428571428572
aF0.008571428571428572
aF0.6485714285714286
aaa(lp99
(lp100
S'HOUSE'
p101
aF0.004796163069544364
aF0.002398081534772182
aF0.7769784172661871
aa(lp102
S'HAT'
p103
aF0.05275779376498801
aF0.05275779376498801
aF0.8177458033573142
aa(lp104
S'HOME'
p105
aF0.016786570743405275
aF0.019184652278177457
aF0.7194244604316546
aa(lp106
S'HIGH'
p107
aF0.019184652278177457
aF0.02158273381294964
aF0.8441247002398081
aa(lp108
S'HORSE'
p109
aF0.026378896882494004
aF0.03117505995203837
aF0.7002398081534772
aa(lp110
S'HELLO'
p111
aF0.20623501199040767
aF0.18705035971223022
aF0.9568345323741008
aa(lp112
S'HIT'
p113
aF0.03597122302158273
aF0.023980815347721823
aF0.6019184652278178
aa(lp114
S'HAND'
p115
aF0.03836930455635491
aF0.047961630695443645
aF0.6810551558752997
aa(lp116
S'HAPPY'
p117
aF0.002398081534772182
aF0.009592326139088728
aF0.9400479616306955
aaa(lp118
(lp119
S'ICE'
p120
aF0.002881844380403458
aF0.008645533141210375
aF0.7204610951008645
aa(lp121
S'I'
p122
aF0.07492795389048991
aF0.23631123919308358
aF0.9884726224783862
aa(lp123
S'IGLOO'
p124
aF0.729106628242075
aF0.3515850144092219
aF0.9365994236311239
aa(lp125
S'INDIVIDUAL'
p126
aF0.069164265129683
aF0.09221902017291066
aF0.8818443804034583
aa(lp127
S'IN'
p128
aF0.008645533141210375
aF0.037463976945244955
aF1.0
aa(lp129
S'IMAGINE'
p130
aF0.27089337175792505
aF0.16714697406340057
aF0.8876080691642652
aa(lp131
S'IMITATE'
p132
aF0.5244956772334294
aF0.21613832853025935
aF0.7319884726224783
aa(lp133
S'INHIBIT'
p134
ag12
ag12
ag12
aaa(lp135
(lp136
S'JUMP'
p137
aF0.0234375
aF0.0390625
aF0.8515625
aa(lp138
S'JACK'
p139
aF0.21875
aF0.1640625
aF0.7265625
aa(lp140
S'JANUARY'
p141
aF0.4140625
aF0.4453125
aF0.5625
aa(lp142
S'JOG'
p143
aF0.0625
aF0.234375
aF1.0
aa(lp144
S'JUICE'
p145
aF0.0546875
aF0.046875
aF0.921875
aa(lp146
S'JOEL'
p147
ag12
ag12
ag12
aa(lp148
S'JORDAN'
p149
ag12
ag12
ag12
aa(lp150
S'JEWEL'
p151
aF0.1953125
aF0.1796875
aF0.65625
aa(lp152
S'JUST'
p153
aF0.4453125
aF0.2890625
aF0.703125
aa(lp154
S'JOB'
p155
aF0.0078125
aF0.0078125
aF0.984375
aa(lp156
S'JAR'
p157
aF0.109375
aF0.1171875
aF0.8203125
aaa(lp158
(lp159
S'LOVE'
p160
aF0.0028735632183908046
aF0.0028735632183908046
aF0.5660919540229885
aa(lp161
S'LAUGH'
p162
aF0.02586206896551724
aF0.05747126436781609
aF0.9482758620689655
aa(lp163
S'LOSE'
p164
aF0.08045977011494253
aF0.08333333333333333
aF0.8735632183908046
aa(lp165
S'LION'
p166
aF0.10919540229885058
aF0.06609195402298851
aF0.7097701149425287
aa(lp167
S'LOSER'
p168
aF0.21839080459770116
aF0.13218390804597702
aF0.8764367816091954
aa(lp169
S'LAMB'
p170
aF0.2614942528735632
aF0.2471264367816092
aF0.7298850574712644
aa(lp171
S'LONG'
p172
aF0.014367816091954023
aF0.008620689655172414
aF0.7844827586206896
aa(lp173
S'LAKE'
p174
aF0.07758620689655173
aF0.08045977011494253
aF0.6752873563218391
aa(lp175
S'LEMON'
p176
aF0.1810344827586207
aF0.25287356321839083
aF0.8477011494252874
aaa(lp177
(lp178
S'MOM'
p179
aF0.04436229205175601
aF0.04251386321626617
aF0.9833641404805915
aa(lp180
S'MAN'
p181
aF0.0036968576709796672
aF0.0036968576709796672
aF0.9390018484288355
aa(lp182
S'MOUSE'
p183
aF0.012939001848428836
aF0.07578558225508318
aF0.9094269870609981
aa(lp184
S'MALE'
p185
aF0.04990757855822551
aF0.08502772643253234
aF0.9815157116451017
aa(lp186
S'MORE'
p187
aF0.053604436229205174
aF0.066543438077634
aF0.9408502772643254
aa(lp188
S'ME'
p189
aF0.014787430683918669
aF0.009242144177449169
aF0.8521256931608133
aa(lp190
S'MOTHER'
p191
aF0.009242144177449169
aF0.022181146025878003
aF0.8077634011090573
aa(lp192
S'MANY'
p193
aF0.038817005545286505
aF0.033271719038817
aF0.9500924214417745
aa(lp194
S'MONKEY'
p195
aF0.09242144177449169
aF0.07208872458410351
aF0.5489833641404805
aa(lp196
S'MOVE'
p197
aF0.025878003696857672
aF0.0166358595194085
aF0.5212569316081331
aaa(lp198
(lp199
S'NO'
p200
aF0.0502092050209205
aF0.016736401673640166
aF0.9330543933054394
aa(lp201
S'NEW'
p202
aF0.029288702928870293
aF0.02092050209205021
aF0.895397489539749
aa(lp203
S'NOTHING'
p204
aF0.05439330543933055
aF0.05439330543933055
aF0.7280334728033473
aa(lp205
S'NEXT'
p206
aF0.2510460251046025
aF0.41841004184100417
aF0.5857740585774058
aa(lp207
S'NEVER'
p208
aF0.06276150627615062
aF0.0794979079497908
aF0.9205020920502092
aa(lp209
S'NICE'
p210
aF0.0041841004184100415
aF0.0041841004184100415
aF0.7573221757322176
aa(lp211
S'NOPE'
p212
aF0.6150627615062761
aF0.8451882845188284
aF0.14225941422594143
aa(lp213
S'NIP'
p214
ag12
ag12
ag12
aaa(lp215
(lp216
S'OPEN'
p217
aF0.015384615384615385
aF0.011538461538461539
aF0.9884615384615385
aa(lp218
S'OCTOPUS'
p219
aF0.4153846153846154
aF0.36538461538461536
aF0.8846153846153846
aa(lp220
S'OH'
p221
ag12
ag12
ag12
aa(lp222
S'ORANGE'
p223
aF0.026923076923076925
aF0.03461538461538462
aF0.8038461538461539
aa(lp224
S'OCTOGON'
p225
ag12
ag12
ag12
aa(lp226
S'ORANGUTAN'
p227
ag12
ag12
ag12
aa(lp228
S'OSTRICH'
p229
ag12
ag12
ag12
aaa(lp230
(lp231
S'POOL'
p232
aF0.03182374541003672
aF0.03427172582619339
aF0.7943696450428397
aa(lp233
S'PHONE'
p234
aF0.030599755201958383
aF0.037943696450428395
aF0.9045287637698899
aa(lp235
S'PENIS'
p236
aF0.28886168910648713
aF0.4969400244798042
aF0.5042839657282742
aa(lp237
S'PLATO'
p238
aF0.802937576499388
aF0.5581395348837209
aF0.4430844553243574
aa(lp239
S'PAUL'
p240
aF0.6585067319461444
aF0.5703794369645043
aF0.4320685434516524
aa(lp241
S'PEE'
p242
aF0.6707466340269278
aF0.6009791921664627
aF0.401468788249694
aa(lp243
S'PUKE'
p244
aF0.20930232558139536
aF0.2962056303549572
aF0.8298653610771114
aaa(lp245
(lp246
S'RIGHT'
p247
aF0.0072992700729927005
aF0.020072992700729927
aF0.9963503649635036
aa(lp248
S'RABBIT'
p249
aF0.040145985401459854
aF0.04927007299270073
aF0.5638686131386861
aa(lp250
S'RED'
p251
aF0.0018248175182481751
aF0.0018248175182481751
aF0.7937956204379562
aa(lp252
S'RUN'
p253
aF0.0036496350364963502
aF0.0036496350364963502
aF0.9087591240875912
aa(lp254
S'ROTATE'
p255
aF0.3284671532846715
aF0.5437956204379562
aF0.458029197080292
aa(lp256
S'REGRESSION'
p257
ag12
ag12
ag12
aa(lp258
S'RAT'
p259
aF0.03832116788321168
aF0.05474452554744526
aF0.6642335766423357
aa(lp260
S'RHINOCEROS'
p261
aF0.7773722627737226
aF0.6806569343065694
aF0.31204379562043794
aa(lp262
S'RESTRICT'
p263
ag12
ag12
ag12
aaa(lp264
(lp265
S'SNAKE'
p266
aF0.10926365795724466
aF0.07046714172604909
aF0.5423594615993665
aa(lp267
S'SUPER'
p268
aF0.1749802058590657
aF0.2327790973871734
aF0.8535233570863024
aa(lp269
S'SAD'
p270
aF0.0023752969121140144
aF0.004750593824228029
aF0.9667458432304038
aaa(lp271
(lp272
S'TIME'
p273
aF0.0017064846416382253
aF0.0017064846416382253
aF0.726962457337884
aa(lp274
S'TRAIN'
p275
aF0.02218430034129693
aF0.040955631399317405
aF0.5853242320819113
aa(lp276
S'TREE'
p277
aF0.0034129692832764505
aF0.0034129692832764505
aF0.5409556313993175
aa(lp278
S'TEA'
p279
aF0.09385665529010238
aF0.09726962457337884
aF0.8600682593856656
aa(lp280
S'TYRANNOSAURUS'
p281
aF0.8959044368600683
aF0.7320819112627986
aF0.2781569965870307
aa(lp282
S'TOTALLY'
p283
ag12
ag12
ag12
aaa(lp284
(lp285
S'UNDER'
p286
aF0.014492753623188406
aF0.05314009661835749
aF0.9371980676328503
aa(lp287
S'UMBRELLA'
p288
aF0.13043478260869565
aF0.19806763285024154
aF0.9758454106280193
aa(lp289
S'UNICORN'
p290
aF0.3188405797101449
aF0.2608695652173913
aF0.8309178743961353
aa(lp291
S'USURP'
p292
aF1.0
aF0.2995169082125604
aF1.0
aa(lp293
S'UP'
p294
aF0.004830917874396135
aF0.004830917874396135
aF0.9903381642512077
aa(lp295
S'UTOPIA'
p296
aF0.6666666666666666
aF0.45410628019323673
aF0.5507246376811594
aa(lp297
S'ULYSSES'
p298
aF0.7777777777777778
aF0.9420289855072463
aF0.06280193236714976
aa(lp299
S'UNDERWEAR'
p300
aF0.34782608695652173
aF0.18840579710144928
aF0.7971014492753623
aa(lp301
S'URANUS'
p302
aF0.27053140096618356
aF0.18357487922705315
aF0.9082125603864735
aaa(lp303
(lp304
S'VERY'
p305
aF0.46875
aF0.625
aF0.3875
aa(lp306
S'VENUS'
p307
aF0.1625
aF0.14375
aF0.7125
aa(lp308
S'VEHICLE'
p309
aF0.04375
aF0.0625
aF0.95
aa(lp310
S'VEX'
p311
ag12
ag12
ag12
aa(lp312
S'VAGINA'
p313
aF0.78125
aF0.99375
aF0.00625
aa(lp314
S'VIOLIN'
p315
aF0.1125
aF0.1
aF0.83125
aa(lp316
S'VERMONT'
p317
ag12
ag12
ag12
aa(lp318
S'VERONICA'
p319
ag12
ag12
ag12
aaa(lp320
(lp321
S'WHALE'
p322
aF0.27796610169491526
aF0.25084745762711863
aF0.6101694915254238
aa(lp323
S'WIN'
p324
aF0.03728813559322034
aF0.02711864406779661
aF0.9627118644067797
aa(lp325
S'WAX'
p326
aF0.17627118644067796
aF0.2576271186440678
aF0.7762711864406779
aa(lp327
S'WINDOW'
p328
aF0.061016949152542375
aF0.1016949152542373
aF0.7186440677966102
aa(lp329
S'WATER'
p330
aF0.003389830508474576
aF0.003389830508474576
aF0.5830508474576271
aa(lp331
S'WINTER'
p332
aF0.06779661016949153
aF0.15254237288135594
aF0.9898305084745763
aa(lp333
S'WHITE'
p334
aF0.010169491525423728
aF0.010169491525423728
aF0.9322033898305084
aa(lp335
S'WAIL'
p336
aF0.9322033898305084
aF0.8271186440677966
aF0.17966101694915254
aa(lp337
S'WOMAN'
p338
aF0.013559322033898305
aF0.023728813559322035
aF0.9525423728813559
aa(lp339
S'WHAT'
p340
aF0.1864406779661017
aF0.13220338983050847
aF0.9050847457627119
aaa.