(lp0
(lp1
(S'APPLE'
p2
I11
tp3
a(S'ALPHABET'
p4
I7
tp5
a(S'ANSWER'
p6
I5
tp7
a(S'ANIMAL'
p8
I3
tp9
a(S'APPLESAUCE'
p10
I2
tp11
aa(lp12
(S'BOOK'
p13
I4
tp14
a(S'BEE'
p15
I3
tp16
a(S'BACK'
p17
I3
tp18
a(S'BOY'
p19
I3
tp20
a(S'BABY'
p21
I2
tp22
a(S'BLACK'
p23
I2
tp24
a(S'BRAIN'
p25
I2
tp26
a(S'BASKETBALL'
p27
I2
tp28
a(S'BROWN'
p29
I2
tp30
a(S'BELL'
p31
I2
tp32
aa(lp33
(S'CAT'
p34
I11
tp35
a(S'CUP'
p36
I3
tp37
a(S'CAR'
p38
I2
tp39
aa(lp40
(S'DOG'
p41
I11
tp42
a(S'DICK'
p43
I5
tp44
a(S'DINOSAUR'
p45
I2
tp46
a(S'DANDELION'
p47
I2
tp48
a(S'DRAIN'
p49
I2
tp50
a(S'DAD'
p51
I2
tp52
aa(lp53
(S'ELEPHANT'
p54
I12
tp55
a(S'EAT'
p56
I5
tp57
a(S'EXPERIENCE'
p58
I2
tp59
a(S'EAR'
p60
I2
tp61
aa(lp62
(S'FUCK'
p63
I8
tp64
a(S'FRIEND'
p65
I3
tp66
a(S'FROG'
p67
I2
tp68
a(S'FIVE'
p69
I2
tp70
a(S'FLUENCY'
p71
I2
tp72
a(S'FAT'
p73
I2
tp74
a(S'FLOWER'
p75
I2
tp76
aa(lp77
(S'GOD'
p78
I5
tp79
a(S'GREAT'
p80
I5
tp81
a(S'GO'
p82
I4
tp83
a(S'GOOD'
p84
I4
tp85
a(S'GIRAFFE'
p86
I3
tp87
a(S'GRADE'
p88
I2
tp89
a(S'GOSSIP'
p90
I2
tp91
a(S'GENERAL'
p92
I2
tp93
a(S'GRAPH'
p94
I2
tp95
a(S'GREEN'
p96
I2
tp97
aa(lp98
(S'HOUSE'
p99
I5
tp100
a(S'HAT'
p101
I4
tp102
a(S'HOME'
p103
I4
tp104
a(S'HIGH'
p105
I3
tp106
a(S'HORSE'
p107
I3
tp108
a(S'HELLO'
p109
I2
tp110
a(S'HIT'
p111
I2
tp112
a(S'HAND'
p113
I2
tp114
a(S'HAPPY'
p115
I2
tp116
aa(lp117
(S'ICE'
p118
I6
tp119
a(S'I'
p120
I6
tp121
a(S'IGLOO'
p122
I5
tp123
a(S'INDIVIDUAL'
p124
I3
tp125
a(S'IN'
p126
I2
tp127
a(S'IMAGINE'
p128
I2
tp129
a(S'IMITATE'
p130
I2
tp131
a(S'INHIBIT'
p132
I2
tp133
aa(lp134
(S'JUMP'
p135
I3
tp136
a(S'JACK'
p137
I3
tp138
a(S'JANUARY'
p139
I3
tp140
a(S'JOG'
p141
I3
tp142
a(S'JUICE'
p143
I3
tp144
a(S'JOEL'
p145
I2
tp146
a(S'JORDAN'
p147
I2
tp148
a(S'JEWEL'
p149
I2
tp150
a(S'JUST'
p151
I2
tp152
a(S'JOB'
p153
I2
tp154
a(S'JAR'
p155
I2
tp156
aa(lp157
(S'LOVE'
p158
I5
tp159
a(S'LAUGH'
p160
I4
tp161
a(S'LOSE'
p162
I3
tp163
a(S'LION'
p164
I3
tp165
a(S'LOSER'
p166
I2
tp167
a(S'LAMB'
p168
I2
tp169
a(S'LONG'
p170
I2
tp171
a(S'LAKE'
p172
I2
tp173
a(S'LEMON'
p174
I2
tp175
aa(lp176
(S'MOM'
p177
I6
tp178
a(S'MAN'
p179
I3
tp180
a(S'MOUSE'
p181
I3
tp182
a(S'MALE'
p183
I3
tp184
a(S'MORE'
p185
I2
tp186
a(S'ME'
p187
I2
tp188
a(S'MOTHER'
p189
I2
tp190
a(S'MANY'
p191
I2
tp192
a(S'MONKEY'
p193
I2
tp194
a(S'MOVE'
p195
I2
tp196
aa(lp197
(S'NO'
p198
I7
tp199
a(S'NEW'
p200
I6
tp201
a(S'NOTHING'
p202
I3
tp203
a(S'NEXT'
p204
I3
tp205
a(S'NEVER'
p206
I3
tp207
a(S'NICE'
p208
I2
tp209
a(S'NOPE'
p210
I2
tp211
a(S'NIP'
p212
I2
tp213
aa(lp214
(S'OPEN'
p215
I8
tp216
a(S'OCTOPUS'
p217
I5
tp218
a(S'OH'
p219
I4
tp220
a(S'ORANGE'
p221
I3
tp222
a(S'OCTOGON'
p223
I2
tp224
a(S'ORANGUTAN'
p225
I2
tp226
a(S'OSTRICH'
p227
I2
tp228
aa(lp229
(S'POOL'
p230
I3
tp231
a(S'PHONE'
p232
I3
tp233
a(S'PENIS'
p234
I2
tp235
a(S'PLATO'
p236
I2
tp237
a(S'PAUL'
p238
I2
tp239
a(S'PEE'
p240
I2
tp241
a(S'PUKE'
p242
I2
tp243
aa(lp244
(S'RIGHT'
p245
I6
tp246
a(S'RABBIT'
p247
I4
tp248
a(S'RED'
p249
I3
tp250
a(S'RUN'
p251
I2
tp252
a(S'ROTATE'
p253
I2
tp254
a(S'REGRESSION'
p255
I2
tp256
a(S'RAT'
p257
I2
tp258
a(S'RHINOCEROS'
p259
I2
tp260
a(S'RESTRICT'
p261
I2
tp262
aa(lp263
(S'SNAKE'
p264
I4
tp265
a(S'SUPER'
p266
I2
tp267
a(S'SAD'
p268
I2
tp269
aa(lp270
(S'TIME'
p271
I3
tp272
a(S'TRAIN'
p273
I3
tp274
a(S'TREE'
p275
I3
tp276
a(S'TEA'
p277
I3
tp278
a(S'TYRANNOSAURUS'
p279
I2
tp280
a(S'TOTALLY'
p281
I2
tp282
aa(lp283
(S'UNDER'
p284
I8
tp285
a(S'UMBRELLA'
p286
I4
tp287
a(S'UNICORN'
p288
I2
tp289
a(S'USURP'
p290
I2
tp291
a(S'UP'
p292
I2
tp293
a(S'UTOPIA'
p294
I2
tp295
a(S'ULYSSES'
p296
I2
tp297
a(S'UNDERWEAR'
p298
I2
tp299
a(S'URANUS'
p300
I2
tp301
aa(lp302
(S'VERY'
p303
I3
tp304
a(S'VENUS'
p305
I2
tp306
a(S'VEHICLE'
p307
I2
tp308
a(S'VEX'
p309
I2
tp310
a(S'VAGINA'
p311
I2
tp312
a(S'VIOLIN'
p313
I2
tp314
a(S'VERMONT'
p315
I2
tp316
a(S'VERONICA'
p317
I2
tp318
aa(lp319
(S'WHALE'
p320
I4
tp321
a(S'WIN'
p322
I4
tp323
a(S'WAX'
p324
I4
tp325
a(S'WINDOW'
p326
I3
tp327
a(S'WATER'
p328
I3
tp329
a(S'WINTER'
p330
I2
tp331
a(S'WHITE'
p332
I2
tp333
a(S'WAIL'
p334
I2
tp335
a(S'WOMAN'
p336
I2
tp337
a(S'WHAT'
p338
I2
tp339
aa.