(lp0
(lp1
(S'APPLE'
p2
I14
tp3
a(S'ALPHABET'
p4
I9
tp5
a(S'ANSWER'
p6
I6
tp7
a(S'ANIMAL'
p8
I3
tp9
a(S'APPLESAUCE'
p10
I2
tp11
aa(lp12
(S'BOOK'
p13
I5
tp14
a(S'BACK'
p15
I4
tp16
a(S'BOY'
p17
I4
tp18
a(S'BEE'
p19
I3
tp20
a(S'BRING'
p21
I2
tp22
a(S'BABY'
p23
I2
tp24
a(S'BEAR'
p25
I2
tp26
a(S'BLACK'
p27
I2
tp28
a(S'BRAIN'
p29
I2
tp30
a(S'BASKETBALL'
p31
I2
tp32
a(S'BEGIN'
p33
I2
tp34
a(S'BROWN'
p35
I2
tp36
a(S'BOAT'
p37
I2
tp38
a(S'BIRTHDAY'
p39
I2
tp40
a(S'BELL'
p41
I2
tp42
aa(lp43
(S'CAT'
p44
I15
tp45
a(S'CUP'
p46
I3
tp47
a(S'CAR'
p48
I3
tp49
a(S'CLAY'
p50
I2
tp51
a(S'CLOSE'
p52
I2
tp53
a(S'COLIN'
p54
I2
tp55
a(S'COMPLEX'
p56
I2
tp57
a(S'CONTROLLER'
p58
I2
tp59
aa(lp60
(S'DOG'
p61
I16
tp62
a(S'DICK'
p63
I5
tp64
a(S'DAD'
p65
I3
tp66
a(S'DINOSAUR'
p67
I2
tp68
a(S'DANDELION'
p69
I2
tp70
a(S'DRAIN'
p71
I2
tp72
aa(lp73
(S'ELEPHANT'
p74
I17
tp75
a(S'EAT'
p76
I7
tp77
a(S'EGO'
p78
I2
tp79
a(S'EXPERIENCE'
p80
I2
tp81
a(S'ENTER'
p82
I2
tp83
a(S'ELEMENT'
p84
I2
tp85
a(S'EAR'
p86
I2
tp87
a(S'EDWARD'
p88
I2
tp89
a(S'EXPERIMENT'
p90
I2
tp91
aa(lp92
(S'FUCK'
p93
I9
tp94
a(S'FRIEND'
p95
I4
tp96
a(S'FAT'
p97
I3
tp98
a(S'FROG'
p99
I2
tp100
a(S'FIVE'
p101
I2
tp102
a(S'FRISBEE'
p103
I2
tp104
a(S'FLUENCY'
p105
I2
tp106
a(S'FLIP'
p107
I2
tp108
a(S'FLOWER'
p109
I2
tp110
a(S'FIND'
p111
I2
tp112
a(S'FOUR'
p113
I2
tp114
a(S'FRENCH'
p115
I2
tp116
a(S'FINGERBOARD'
p117
I2
tp118
aa(lp119
(S'GO'
p120
I6
tp121
a(S'GREAT'
p122
I6
tp123
a(S'GOD'
p124
I5
tp125
a(S'GOOD'
p126
I5
tp127
a(S'GOSSIP'
p128
I3
tp129
a(S'GIRAFFE'
p130
I3
tp131
a(S'GRADE'
p132
I2
tp133
a(S'GEORGE'
p134
I2
tp135
a(S'GENERAL'
p136
I2
tp137
a(S'GRAPH'
p138
I2
tp139
a(S'GREEN'
p140
I2
tp141
aa(lp142
(S'HAT'
p143
I7
tp144
a(S'HOUSE'
p145
I6
tp146
a(S'HOME'
p147
I4
tp148
a(S'HORSE'
p149
I4
tp150
a(S'HIGH'
p151
I3
tp152
a(S'HIT'
p153
I3
tp154
a(S'HAPPY'
p155
I3
tp156
a(S'HELLO'
p157
I2
tp158
a(S'HAND'
p159
I2
tp160
a(S'HELICOPTOR'
p161
I2
tp162
a(S'HELP'
p163
I2
tp164
aa(lp165
(S'I'
p166
I8
tp167
a(S'ICE'
p168
I7
tp169
a(S'IGLOO'
p170
I6
tp171
a(S'INDIVIDUAL'
p172
I3
tp173
a(S'INHIBIT'
p174
I3
tp175
a(S'ILLUSION'
p176
I2
tp177
a(S'IN'
p178
I2
tp179
a(S'ICARUS'
p180
I2
tp181
a(S'IMAGINE'
p182
I2
tp183
a(S'IPHONE'
p184
I2
tp185
a(S'IMITATE'
p186
I2
tp187
aa(lp188
(S'JUMP'
p189
I4
tp190
a(S'JACK'
p191
I4
tp192
a(S'JANUARY'
p193
I4
tp194
a(S'JUICE'
p195
I4
tp196
a(S'JAR'
p197
I4
tp198
a(S'JUST'
p199
I3
tp200
a(S'JOG'
p201
I3
tp202
a(S'JOB'
p203
I3
tp204
a(S'JOEL'
p205
I2
tp206
a(S'JORDAN'
p207
I2
tp208
a(S'JOKER'
p209
I2
tp210
a(S'JEWEL'
p211
I2
tp212
a(S'JENNA'
p213
I2
tp214
aa(lp215
(S'LOVE'
p216
I6
tp217
a(S'LOSE'
p218
I4
tp219
a(S'LAUGH'
p220
I4
tp221
a(S'LION'
p222
I4
tp223
a(S'LONG'
p224
I3
tp225
a(S'LEMON'
p226
I3
tp227
a(S'LOSER'
p228
I2
tp229
a(S'LAMB'
p230
I2
tp231
a(S'LAUGHING'
p232
I2
tp233
a(S'LONELY'
p234
I2
tp235
a(S'LAKE'
p236
I2
tp237
a(S'LIE'
p238
I2
tp239
aa(lp240
(S'MOM'
p241
I8
tp242
a(S'MAN'
p243
I4
tp244
a(S'MALE'
p245
I4
tp246
a(S'ME'
p247
I3
tp248
a(S'MOUSE'
p249
I3
tp250
a(S'MORE'
p251
I2
tp252
a(S'MARY'
p253
I2
tp254
a(S'MATT'
p255
I2
tp256
a(S'MOTHER'
p257
I2
tp258
a(S'MANY'
p259
I2
tp260
a(S'MONKEY'
p261
I2
tp262
a(S'MARCO'
p263
I2
tp264
a(S'MOVE'
p265
I2
tp266
aa(lp267
(S'NO'
p268
I12
tp269
a(S'NEW'
p270
I8
tp271
a(S'NOTHING'
p272
I3
tp273
a(S'NEXT'
p274
I3
tp275
a(S'NEVER'
p276
I3
tp277
a(S'NICE'
p278
I2
tp279
a(S'NOPE'
p280
I2
tp281
a(S'NIP'
p282
I2
tp283
a(S'NARUN'
p284
I2
tp285
a(S'NIAGRA FALLS'
p286
I2
tp287
a(S'NUMBER'
p288
I2
tp289
a(S'NUANCE'
p290
I2
tp291
aa(lp292
(S'OPEN'
p293
I12
tp294
a(S'OCTOPUS'
p295
I6
tp296
a(S'ORANGE'
p297
I5
tp298
a(S'OH'
p299
I4
tp300
a(S'OCTOGON'
p301
I2
tp302
a(S'ORANGUTAN'
p303
I2
tp304
a(S'OSTRICH'
p305
I2
tp306
a(S'OWEN'
p307
I2
tp308
a(S'ORTHOGONAL'
p309
I2
tp310
aa(lp311
(S'PHONE'
p312
I4
tp313
a(S'POOL'
p314
I3
tp315
a(S'PENIS'
p316
I2
tp317
a(S'PLATO'
p318
I2
tp319
a(S'PRICK'
p320
I2
tp321
a(S'PSEUDONYM'
p322
I2
tp323
a(S'PUPPY'
p324
I2
tp325
a(S'PAUL'
p326
I2
tp327
a(S'POLYNOMIAL'
p328
I2
tp329
a(S'PURPLE'
p330
I2
tp331
a(S'PIZZA'
p332
I2
tp333
a(S'PEE'
p334
I2
tp335
a(S'PUKE'
p336
I2
tp337
aa(lp338
(S'RIGHT'
p339
I8
tp340
a(S'RABBIT'
p341
I5
tp342
a(S'RED'
p343
I3
tp344
a(S'R'
p345
I2
tp346
a(S'RHODE ISLAND'
p347
I2
tp348
a(S'RUN'
p349
I2
tp350
a(S'ROTATE'
p351
I2
tp352
a(S'REGRESSION'
p353
I2
tp354
a(S'RAT'
p355
I2
tp356
a(S'RHINOCEROS'
p357
I2
tp358
a(S'ROAR'
p359
I2
tp360
a(S'RESTRICT'
p361
I2
tp362
a(S'READ'
p363
I2
tp364
aa(lp365
(S'SNAKE'
p366
I5
tp367
a(S'SUPER'
p368
I2
tp369
a(S'SOPHIE'
p370
I2
tp371
a(S'SICK'
p372
I2
tp373
a(S'SAD'
p374
I2
tp375
a(S'STOP'
p376
I2
tp377
aa(lp378
(S'TREE'
p379
I4
tp380
a(S'TEA'
p381
I4
tp382
a(S'TIME'
p383
I3
tp384
a(S'TRAIN'
p385
I3
tp386
a(S'TETRIS'
p387
I2
tp388
a(S'TYRANNOSAURUS'
p389
I2
tp390
a(S'TOTALLY'
p391
I2
tp392
a(S'TOP'
p393
I2
tp394
a(S'TOY'
p395
I2
tp396
aa(lp397
(S'UNDER'
p398
I10
tp399
a(S'UMBRELLA'
p400
I5
tp401
a(S'UP'
p402
I3
tp403
a(S'URANUS'
p404
I3
tp405
a(S'UNICORN'
p406
I2
tp407
a(S'USURP'
p408
I2
tp409
a(S'ULTIMATE'
p410
I2
tp411
a(S'UNDERLINE'
p412
I2
tp413
a(S'UTOPIA'
p414
I2
tp415
a(S'ULYSSES'
p416
I2
tp417
a(S'UNDERWEAR'
p418
I2
tp419
aa(lp420
(S'VEX'
p421
I3
tp422
a(S'VERY'
p423
I3
tp424
a(S'VAGINA'
p425
I3
tp426
a(S'VIOLIN'
p427
I3
tp428
a(S'VERMONT'
p429
I3
tp430
a(S'VECTOR'
p431
I2
tp432
a(S'VENUS'
p433
I2
tp434
a(S'VEHICLE'
p435
I2
tp436
a(S'VERTICAL'
p437
I2
tp438
a(S'VET'
p439
I2
tp440
a(S'VANESSA'
p441
I2
tp442
a(S'VIOLET'
p443
I2
tp444
a(S'VERONICA'
p445
I2
tp446
aa(lp447
(S'WHALE'
p448
I5
tp449
a(S'WINDOW'
p450
I5
tp451
a(S'WATER'
p452
I4
tp453
a(S'WIN'
p454
I4
tp455
a(S'WAX'
p456
I4
tp457
a(S'WINTER'
p458
I2
tp459
a(S'WHITE'
p460
I2
tp461
a(S'WAIL'
p462
I2
tp463
a(S'WOMAN'
p464
I2
tp465
a(S'WHAT'
p466
I2
tp467
a(S'WILL'
p468
I2
tp469
aa.